; Function Attrs: mustprogress uwtable
define hidden void @_Z12luau_executeP9lua_State(ptr noundef %0) local_unnamed_addr #3 {
  %2 = getelementptr inbounds nuw i8, ptr %0, i64 6
  %3 = load i8, ptr %2, align 2, !tbaa !44, !range !45, !noundef !46
  %4 = trunc nuw i8 %3 to i1
  br i1 %4, label %5, label %6

5:                                                ; preds = %1
  tail call fastcc void @_ZL12luau_executeILb1EEvP9lua_State(ptr noundef nonnull %0)
  br label %7

6:                                                ; preds = %1
  tail call fastcc void @_ZL12luau_executeILb0EEvP9lua_State(ptr noundef nonnull %0)
  br label %7

7:                                                ; preds = %6, %5
  ret void
}